target datalayout = "e-m:e-p270:32:32-p271:32:32-p272:64:64-i64:64-i128:128-f80:128-n8:16:32:64-S128"
target triple = "x86_64-pc-linux-gnu"

%struct._hashlibstate = type { ptr, ptr, ptr, ptr, ptr, ptr }

@PyExc_ValueError = external global ptr, align 8
@.str.136 = private unnamed_addr constant [35 x i8] c"_hashlib.UnsupportedDigestmodError\00", align 1
@.str.137 = private unnamed_addr constant [26 x i8] c"UnsupportedDigestmodError\00", align 1

; Function Attrs: inlinehint nounwind uwtable
define internal ptr @get_hashlib_state(ptr noundef %0) #4 {
  %2 = alloca ptr, align 8
  %3 = alloca ptr, align 8
  store ptr %0, ptr %2, align 8, !tbaa !14
  call void @llvm.lifetime.start.p0(i64 8, ptr %3) #9
  %4 = load ptr, ptr %2, align 8, !tbaa !14
  %5 = call ptr @PyModule_GetState(ptr noundef %4)
  store ptr %5, ptr %3, align 8, !tbaa !3
  %6 = load ptr, ptr %3, align 8, !tbaa !3
  call void @llvm.lifetime.end.p0(i64 8, ptr %3) #9
  ret ptr %6
}

; Function Attrs: nounwind uwtable
define internal i32 @hashlib_exception(ptr noundef %0) #0 {
  %2 = alloca i32, align 4
  %3 = alloca ptr, align 8
  %4 = alloca ptr, align 8
  %5 = alloca i32, align 4
  store ptr %0, ptr %3, align 8, !tbaa !14
  call void @llvm.lifetime.start.p0(i64 8, ptr %4) #9
  %6 = load ptr, ptr %3, align 8, !tbaa !14
  %7 = call ptr @get_hashlib_state(ptr noundef %6)
  store ptr %7, ptr %4, align 8, !tbaa !3
  %8 = load ptr, ptr @PyExc_ValueError, align 8, !tbaa !14
  %9 = call ptr @PyErr_NewException(ptr noundef @.str.136, ptr noundef %8, ptr noundef null)
  %10 = load ptr, ptr %4, align 8, !tbaa !3
  %11 = getelementptr inbounds nuw %struct._hashlibstate, ptr %10, i32 0, i32 4
  store ptr %9, ptr %11, align 8, !tbaa !63
  %12 = load ptr, ptr %4, align 8, !tbaa !3
  %13 = getelementptr inbounds nuw %struct._hashlibstate, ptr %12, i32 0, i32 4
  %14 = load ptr, ptr %13, align 8, !tbaa !63
  %15 = icmp eq ptr %14, null
  br i1 %15, label %16, label %17

16:                                               ; preds = %1
  store i32 -1, ptr %2, align 4
  store i32 1, ptr %5, align 4
  br label %26

17:                                               ; preds = %1
  %18 = load ptr, ptr %3, align 8, !tbaa !14
  %19 = load ptr, ptr %4, align 8, !tbaa !3
  %20 = getelementptr inbounds nuw %struct._hashlibstate, ptr %19, i32 0, i32 4
  %21 = load ptr, ptr %20, align 8, !tbaa !63
  %22 = call i32 @PyModule_AddObjectRef(ptr noundef %18, ptr noundef @.str.137, ptr noundef %21)
  %23 = icmp slt i32 %22, 0
  br i1 %23, label %24, label %25

24:                                               ; preds = %17
  store i32 -1, ptr %2, align 4
  store i32 1, ptr %5, align 4
  br label %26

25:                                               ; preds = %17
  store i32 0, ptr %2, align 4
  store i32 1, ptr %5, align 4
  br label %26

26:                                               ; preds = %25, %24, %16
  call void @llvm.lifetime.end.p0(i64 8, ptr %4) #9
  %27 = load i32, ptr %2, align 4
  ret i32 %27
}