; Function Attrs: nounwind uwtable
define internal range(i32 -1, 1) i32 @hashlib_exception(ptr noundef %0) #0 {
  %2 = tail call ptr @PyModule_GetState(ptr noundef %0) #9
  %3 = load ptr, ptr @PyExc_ValueError, align 8, !tbaa !23
  %4 = tail call ptr @PyErr_NewException(ptr noundef nonnull @.str.136, ptr noundef %3, ptr noundef null) #9
  %5 = getelementptr inbounds nuw i8, ptr %2, i64 32
  store ptr %4, ptr %5, align 8, !tbaa !48
  %6 = icmp eq ptr %4, null
  br i1 %6, label %9, label %7

7:                                                ; preds = %1
  %8 = tail call i32 @PyModule_AddObjectRef(ptr noundef %0, ptr noundef nonnull @.str.137, ptr noundef nonnull %4) #9
  %.lobit = ashr i32 %8, 31
  br label %9

9:                                                ; preds = %7, %1
  %.0 = phi i32 [ -1, %1 ], [ %.lobit, %7 ]
  ret i32 %.0
}